target datalayout = "e-m:e-p270:32:32-p271:32:32-p272:64:64-i64:64-i128:128-f80:128-n8:16:32:64-S128"
target triple = "x86_64-pc-linux-gnu"

%"struct.duckdb_libpgquery::yyguts_t" = type { ptr, ptr, ptr, i64, i64, ptr, i8, i64, i64, ptr, i32, i32, i32, i32, i32, ptr, i32, ptr, i32, i32, ptr, i32, i32, ptr, ptr }
%"struct.duckdb_libpgquery::core_yy_extra_type" = type { ptr, i64, ptr, i32, i32, i8, i8, ptr, i32, i32, i32, ptr, i32, i8, i8 }

@.str.33 = private unnamed_addr constant [19 x i8] c"%s at end of input\00", align 1
@.str.34 = private unnamed_addr constant [19 x i8] c"%s at or near \22%s\22\00", align 1

; Function Attrs: mustprogress uwtable
define hidden noundef i32 @_ZN17duckdb_libpgquery19scanner_errpositionEiPv(i32 noundef %0, ptr noundef %1) #0 {
  %3 = alloca i32, align 4
  %4 = alloca i32, align 4
  %5 = alloca ptr, align 8
  %6 = alloca i32, align 4
  %7 = alloca i32, align 4
  store i32 %0, ptr %4, align 4, !tbaa !33
  store ptr %1, ptr %5, align 8, !tbaa !10
  call void @llvm.lifetime.start.p0(i64 4, ptr %6) #11
  %8 = load i32, ptr %4, align 4, !tbaa !33
  %9 = icmp slt i32 %8, 0
  br i1 %9, label %10, label %11

10:                                               ; preds = %2
  store i32 0, ptr %3, align 4
  store i32 1, ptr %7, align 4
  br label %22

11:                                               ; preds = %2
  %12 = load ptr, ptr %5, align 8, !tbaa !10
  %13 = getelementptr inbounds nuw %"struct.duckdb_libpgquery::yyguts_t", ptr %12, i32 0, i32 0
  %14 = load ptr, ptr %13, align 8, !tbaa !43
  %15 = getelementptr inbounds nuw %"struct.duckdb_libpgquery::core_yy_extra_type", ptr %14, i32 0, i32 0
  %16 = load ptr, ptr %15, align 8, !tbaa !44
  %17 = load i32, ptr %4, align 4, !tbaa !33
  %18 = call noundef i32 @_ZN17duckdb_libpgquery20pg_mbstrlen_with_lenEPKci(ptr noundef %16, i32 noundef %17)
  %19 = add nsw i32 %18, 1
  store i32 %19, ptr %6, align 4, !tbaa !33
  %20 = load i32, ptr %6, align 4, !tbaa !33
  %21 = call noundef i32 @_ZN17duckdb_libpgquery11errpositionEi(i32 noundef %20)
  store i32 %21, ptr %3, align 4
  store i32 1, ptr %7, align 4
  br label %22

22:                                               ; preds = %11, %10
  call void @llvm.lifetime.end.p0(i64 4, ptr %6) #11
  %23 = load i32, ptr %3, align 4
  ret i32 %23
}

; Function Attrs: mustprogress uwtable
define hidden void @_ZN17duckdb_libpgquery15scanner_yyerrorEPKcPv(ptr noundef %0, ptr noundef %1) #0 {
  %3 = alloca ptr, align 8
  %4 = alloca ptr, align 8
  %5 = alloca ptr, align 8
  store ptr %0, ptr %3, align 8, !tbaa !30
  store ptr %1, ptr %4, align 8, !tbaa !10
  call void @llvm.lifetime.start.p0(i64 8, ptr %5) #11
  %6 = load ptr, ptr %4, align 8, !tbaa !10
  %7 = getelementptr inbounds nuw %"struct.duckdb_libpgquery::yyguts_t", ptr %6, i32 0, i32 0
  %8 = load ptr, ptr %7, align 8, !tbaa !43
  %9 = getelementptr inbounds nuw %"struct.duckdb_libpgquery::core_yy_extra_type", ptr %8, i32 0, i32 0
  %10 = load ptr, ptr %9, align 8, !tbaa !44
  %11 = load ptr, ptr %4, align 8, !tbaa !10
  %12 = getelementptr inbounds nuw %"struct.duckdb_libpgquery::yyguts_t", ptr %11, i32 0, i32 24
  %13 = load ptr, ptr %12, align 8, !tbaa !21
  %14 = load i32, ptr %13, align 4, !tbaa !33
  %15 = sext i32 %14 to i64
  %16 = getelementptr inbounds i8, ptr %10, i64 %15
  store ptr %16, ptr %5, align 8, !tbaa !30
  %17 = load ptr, ptr %5, align 8, !tbaa !30
  %18 = load i8, ptr %17, align 1, !tbaa !32
  %19 = sext i8 %18 to i32
  %20 = icmp eq i32 %19, 0
  br i1 %20, label %21, label %32

21:                                               ; preds = %2
  %22 = call noundef i32 @_ZN17duckdb_libpgquery7errcodeEi(i32 noundef 0)
  %23 = load ptr, ptr %3, align 8, !tbaa !30
  %24 = call noundef i32 (ptr, ...) @_ZN17duckdb_libpgquery6errmsgEPKcz(ptr noundef @.str.33, ptr noundef %23)
  %25 = load ptr, ptr %4, align 8, !tbaa !10
  %26 = getelementptr inbounds nuw %"struct.duckdb_libpgquery::yyguts_t", ptr %25, i32 0, i32 24
  %27 = load ptr, ptr %26, align 8, !tbaa !21
  %28 = load i32, ptr %27, align 4, !tbaa !33
  %29 = load ptr, ptr %4, align 8, !tbaa !10
  %30 = call noundef i32 @_ZN17duckdb_libpgquery19scanner_errpositionEiPv(i32 noundef %28, ptr noundef %29)
  %31 = call noundef i32 (i32, ...) @_ZN17duckdb_libpgquery7ereportEiz(i32 noundef 3, i32 noundef %30)
  br label %44

32:                                               ; preds = %2
  %33 = call noundef i32 @_ZN17duckdb_libpgquery7errcodeEi(i32 noundef 0)
  %34 = load ptr, ptr %3, align 8, !tbaa !30
  %35 = load ptr, ptr %5, align 8, !tbaa !30
  %36 = call noundef i32 (ptr, ...) @_ZN17duckdb_libpgquery6errmsgEPKcz(ptr noundef @.str.34, ptr noundef %34, ptr noundef %35)
  %37 = load ptr, ptr %4, align 8, !tbaa !10
  %38 = getelementptr inbounds nuw %"struct.duckdb_libpgquery::yyguts_t", ptr %37, i32 0, i32 24
  %39 = load ptr, ptr %38, align 8, !tbaa !21
  %40 = load i32, ptr %39, align 4, !tbaa !33
  %41 = load ptr, ptr %4, align 8, !tbaa !10
  %42 = call noundef i32 @_ZN17duckdb_libpgquery19scanner_errpositionEiPv(i32 noundef %40, ptr noundef %41)
  %43 = call noundef i32 (i32, ...) @_ZN17duckdb_libpgquery7ereportEiz(i32 noundef 3, i32 noundef %42)
  br label %44

44:                                               ; preds = %32, %21
  call void @llvm.lifetime.end.p0(i64 8, ptr %5) #11
  ret void
}