; Function Attrs: mustprogress uwtable
define hidden void @_ZN17duckdb_libpgquery15scanner_yyerrorEPKcPv(ptr noundef %0, ptr noundef readonly captures(none) %1) local_unnamed_addr #0 {
  %3 = load ptr, ptr %1, align 8, !tbaa !43
  %4 = load ptr, ptr %3, align 8, !tbaa !44
  %5 = getelementptr inbounds nuw i8, ptr %1, i64 160
  %6 = load ptr, ptr %5, align 8, !tbaa !16
  %7 = load i32, ptr %6, align 4, !tbaa !48
  %8 = sext i32 %7 to i64
  %9 = getelementptr inbounds i8, ptr %4, i64 %8
  %10 = load i8, ptr %9, align 1, !tbaa !32
  %11 = icmp eq i8 %10, 0
  %12 = tail call noundef i32 @_ZN17duckdb_libpgquery7errcodeEi(i32 noundef 0)
  br i1 %11, label %13, label %18

13:                                               ; preds = %2
  %14 = tail call noundef i32 (ptr, ...) @_ZN17duckdb_libpgquery6errmsgEPKcz(ptr noundef nonnull @.str.33, ptr noundef %0)
  %15 = load ptr, ptr %5, align 8, !tbaa !16
  %16 = load i32, ptr %15, align 4, !tbaa !48
  %17 = icmp slt i32 %16, 0
  br i1 %17, label %_ZN17duckdb_libpgquery19scanner_errpositionEiPv.exit, label %_ZN17duckdb_libpgquery19scanner_errpositionEiPv.exit.sink.split

18:                                               ; preds = %2
  %19 = tail call noundef i32 (ptr, ...) @_ZN17duckdb_libpgquery6errmsgEPKcz(ptr noundef nonnull @.str.34, ptr noundef %0, ptr noundef nonnull %9)
  %20 = load ptr, ptr %5, align 8, !tbaa !16
  %21 = load i32, ptr %20, align 4, !tbaa !48
  %22 = icmp slt i32 %21, 0
  br i1 %22, label %_ZN17duckdb_libpgquery19scanner_errpositionEiPv.exit, label %_ZN17duckdb_libpgquery19scanner_errpositionEiPv.exit.sink.split

_ZN17duckdb_libpgquery19scanner_errpositionEiPv.exit.sink.split: ; preds = %18, %13
  %.sink13 = phi i32 [ %16, %13 ], [ %21, %18 ]
  %23 = load ptr, ptr %1, align 8, !tbaa !43
  %24 = load ptr, ptr %23, align 8, !tbaa !44
  %25 = tail call noundef i32 @_ZN17duckdb_libpgquery20pg_mbstrlen_with_lenEPKci(ptr noundef %24, i32 noundef %.sink13)
  %26 = add nsw i32 %25, 1
  %27 = tail call noundef i32 @_ZN17duckdb_libpgquery11errpositionEi(i32 noundef %26)
  br label %_ZN17duckdb_libpgquery19scanner_errpositionEiPv.exit

_ZN17duckdb_libpgquery19scanner_errpositionEiPv.exit: ; preds = %_ZN17duckdb_libpgquery19scanner_errpositionEiPv.exit.sink.split, %18, %13
  %.0.i10.sink = phi i32 [ 0, %13 ], [ 0, %18 ], [ %27, %_ZN17duckdb_libpgquery19scanner_errpositionEiPv.exit.sink.split ]
  %28 = tail call noundef i32 (i32, ...) @_ZN17duckdb_libpgquery7ereportEiz(i32 noundef 3, i32 noundef %.0.i10.sink)
  ret void
}